(dp0
VPaschos
p1
(dp2
S'xsec_per_E'
p3
(lp4
F0.009447149554581313
aF0.016881808321393688
aF0.029503088510292763
aF0.03921133433014118
aF0.05312827882772275
aF0.06134925590764817
aF0.0749453454351981
aF0.08211948295564497
aF0.09441800441926829
aF0.10105026755052032
aF0.11982011261586589
aF0.14080175365311864
aF0.1473365970332603
aF0.15979529652431573
aF0.16638011019727755
aF0.17890960312471937
aF0.1853758850573815
aF0.19719500633681622
aF0.2034978231311107
aF0.2144400568414724
aF0.2204932895329038
aF0.2308541486183043
aF0.23551231662834285
aF0.24456266163672633
aF0.2492274245573032
aF0.2590131020907057
aF0.2639581487091598
aF0.2731381973381467
aF0.27757224644838396
aF0.2858069090816815
aF0.2901727008678474
aF0.2983569124355272
aF0.30249957455847243
aF0.3105782619875137
aF0.3144899941831185
aF0.32235555794327275
aF0.32594677748671674
aF0.33264789616281015
aF0.33607830794762034
aF0.3422873382390571
aF0.3453319477573774
aF0.34663112285331693
aF0.3513914896965958
aF0.35443609921491614
aF0.3557352743108556
aF0.3603164757044938
aF0.36300496005374666
aF0.3638589786883517
aF0.36841160584967453
aF0.37107041310150507
aF0.3726366820742452
aF0.37644627893490373
aF0.3788083152125113
aF0.3801074903084508
aF0.3839764413639539
aF0.3862494463492946
aF0.3875782985426564
aF0.3906448651026507
aF0.392680453308613
aF0.3934157635535289
aF0.3968989123425422
aF0.39816084067600743
asS'E'
p5
(lp6
F3.56739969783448
aF3.6053382575121713
aF3.6527614571092837
aF3.776061776061775
aF3.984723854289072
aF4.174416652677522
aF4.591740809132114
aF4.857310726875944
aF5.312573443008226
aF5.502266241396676
aF5.53388170779475
aF5.748866879301662
aF6.014436797045493
aF6.507638072855464
aF6.79217727043814
aF7.323317105925801
aF7.607856303508477
aF8.195903978512673
aF8.537351015611884
aF9.125398690616082
aF9.447876447876448
aF10.054893402719488
aF10.43427899949639
aF11.155111633372501
aF11.534497230149404
aF12.255329864025514
aF12.634715460802417
aF13.31760953500084
aF13.715964411616584
aF14.45576632533154
aF14.854121201947288
aF15.593923115662244
aF16.011247272116833
aF16.80795702534833
aF17.206311901964078
aF17.98405237535672
aF18.382407251972467
aF19.198086285042805
aF19.615410441497396
aF20.412120194728885
aF20.829444351183483
aF21.057075709249624
aF21.664092664092664
aF22.081416820547254
aF22.309048178613395
aF22.954003693134126
aF23.371327849588717
aF23.598959207654858
aF24.205976162497898
aF24.623300318952495
aF24.850931677018636
aF25.495887191539367
aF25.913211347993958
aF26.1408427060601
aF26.78579822058083
aF27.20312237703542
aF27.43075373510156
aF28.113647809299984
aF28.530971965754574
aF28.758603323820715
aF29.403558838341446
aF29.763975155279503
assVNuance
p7
(dp8
g3
(lp9
F0.0022364424276528627
aF0.008860486587989103
aF0.016833870451413435
aF0.025116828550347248
aF0.03340033808183451
aF0.042140874913625115
aF0.05060503374962422
aF0.05957463566411997
aF0.06851758500519878
aF0.07718849428657315
aF0.08607648418315755
aF0.09465489984423248
aF0.10328228271605416
aF0.11200649714426253
aF0.12048587551873696
aF0.1288830904427466
aF0.13687224527719977
aF0.14468130223969455
aF0.15270089615109833
aF0.16000340716998956
aF0.16717423609511578
aF0.17427867254080598
aF0.18112195052918004
aF0.1873123323742636
aF0.19366538682261633
aF0.1996370337548295
aF0.20560868068704263
aF0.21136269557149232
aF0.21695293498756588
aF0.22248876639169862
aF0.2278075171806213
aF0.23317957311637794
aF0.23844336446080627
aF0.24348952375747113
aF0.2485895396335234
aF0.25352633147375303
aF0.25846312331398275
aF0.26329109913033066
aF0.26795585091085594
aF0.2727838267272038
aF0.2771759870154713
aF0.28189459537538397
aF0.2861240830603823
aF0.2905162433486498
aF0.29496281164885807
aF0.29908348330997464
aF0.30331186812986605
aF0.3073770289139348
aF0.31128006852728785
aF0.3151275972635932
aF0.3190295340118393
aF0.32276824672426285
aF0.3262893273889229
aF0.32986481606552376
aF0.3333858967301838
aF0.3367981613709621
aF0.34031924203562214
aF0.3436226906525187
aF0.3468173232455335
aF0.34995754782660743
aF0.3530272678169182
aF0.3563457101475301
aF0.3591877935280361
asg5
(lp10
F3.1338161586608777
aF3.472553298640255
aF3.7570924962229313
aF4.060600973644451
aF4.345140171227127
aF4.6296793688098035
aF4.876280006714788
aF5.14184992445862
aF5.388450562363605
aF5.635051200268592
aF5.900621118012422
aF6.147221755917407
aF6.3938223938223935
aF6.67836159140507
aF6.962900788987746
aF7.266409266409266
aF7.569917743830787
aF7.892395501091153
aF8.271781097868054
aF8.613228134967263
aF8.992613731744166
aF9.409937888198757
aF9.827262044653347
aF10.244586201107941
aF10.680879637401377
aF11.136142353533659
aF11.591405069665937
aF12.046667785798219
aF12.520899781769346
aF12.995131777740474
aF13.450394493872755
aF13.943595769682725
aF14.417827765653852
aF14.892059761624976
aF15.38526103743495
aF15.878462313244922
aF16.37166358905489
aF16.864864864864863
aF17.358066140674836
aF17.85126741648481
aF18.363437972133624
aF18.87560852778244
aF19.368809803592413
aF19.880980359241228
aF20.393150914890043
aF20.886352190700016
aF21.417492026187674
aF21.948631861675338
aF22.44183313748531
aF22.97297297297297
aF23.504112808460633
aF24.035252643948297
aF24.566392479435954
aF25.09753231492362
aF25.628672150411283
aF26.15981198589894
aF26.690951821386605
aF27.222091656874262
aF27.753231492361927
aF28.28437132784959
aF28.834480443176098
aF29.384589558502604
aF29.87779083431257
assVHagiwara
p11
(dp12
g3
(lp13
F0.004097579812948893
aF0.020429541559470743
aF0.03513955635543098
aF0.049481214205683355
aF0.06406262267612112
aF0.07825919249453128
aF0.09274992094506751
aF0.10701394934585029
aF0.12118729772673148
aF0.13536861124449595
aF0.14905627008635097
aF0.16230866483267892
aF0.17581330933707068
aF0.18877387372205368
aF0.2013348945869168
aF0.21363783276270634
aF0.22555936342235633
aF0.23686064274588028
aF0.2479975951684748
aF0.2586122306764369
aF0.26890580209968473
aF0.27887830943821834
aF0.2883646638115799
aF0.29748785473128236
aF0.30656894628204023
aF0.31502681878692995
aF0.3231879203175967
aF0.33114017930120043
aF0.3387670930782659
aF0.3465116123799136
asg5
(lp14
F3.548430417995636
aF4.155447372838678
aF4.876280006714788
aF5.635051200268592
aF6.412791673661239
aF7.171562867215041
aF7.949303340607688
aF8.727043814000334
aF9.504784287392981
aF10.32046332046332
aF11.117173073694813
aF11.913882826926303
aF12.767500419674333
aF13.62111801242236
aF14.493704885009231
aF15.38526103743495
aF16.295786469699514
aF17.206311901964078
aF18.154775893906326
aF19.10323988584858
aF20.070673157629678
aF21.057075709249624
aF22.02450898103072
aF23.02988081248951
aF24.05422192378714
aF25.078563035084777
aF26.102904146382407
aF27.16518381735773
aF28.189524928655366
aF29.251804599630688
assVKretzer
p15
(dp16
g3
(lp17
F0.0022555778534039117
aF0.006487271268616035
aF0.012262173749787442
aF0.01898674334847239
aF0.02562997943053552
aF0.03323073318360764
aF0.039827652114052536
aF0.04731298140549911
aF0.05444521005188341
aF0.06138192522292624
aF0.06840876898131698
aF0.07537339889362132
aF0.08257687262591207
aF0.08959591055015725
aF0.09649525084813254
aF0.10350230430488261
aF0.11067203036490197
aF0.11781207932749893
aF0.12468503441329526
aF0.13185476047331451
aF0.13902448653333382
aF0.14619421259335313
aF0.1533639386533724
aF0.1603852792262802
aF0.16731758850692113
aF0.17422022069013976
aF0.18109317577593612
aF0.18802548505657704
aF0.19412683560939373
aF0.1991004564601632
aF0.2040740773109327
aF0.20901802106427989
aF0.21399164191504935
aF0.21896526276581885
aF0.22387952942174374
aF0.22888282736993554
aF0.23367838563617122
aF0.23796943324622793
aF0.24220112666144009
aF0.24643282007665218
aF0.2506645134918643
aF0.25489620690707643
aF0.25912790032228855
aF0.2633595937375007
aF0.2674725787630236
aF0.2710216989375229
aF0.2742740481377993
aF0.2775857515329203
aF0.2808381007331967
aF0.2841201270308954
aF0.2870096049651516
aF0.2918965291601793
aF0.2950301699707665
aF0.29825284207362057
aF0.3013864828842078
aF0.304312384012839
aF0.3072679622388924
aF0.3101938633675236
aF0.31314944159357705
aF0.31607534272220816
aF0.31903092094826163
aF0.3219568220768928
aF0.3249124003029462
aF0.3278383014315774
aF0.33031904609887414
aF0.33244366559710337
aF0.33453860799791024
aF0.33672258169098407
aF0.33884720118921324
aF0.3405924637365125
asg5
(lp18
F1.7463488333053547
aF2.163672989759947
aF2.5809971462145374
aF2.9983213026691296
aF3.3777068994460304
aF3.7625122904626025
aF4.098539533322143
aF4.421017290582508
aF4.724525768004028
aF5.047003525264394
aF5.388450562363605
aF5.748866879301662
aF6.128252476078563
aF6.488668793016618
aF6.849085109954675
aF7.247439986570422
aF7.664764143025012
aF8.082088299479603
aF8.499412455934193
aF8.916736612388787
aF9.334060768843377
aF9.751384925297968
aF10.168709081752558
aF10.586033238207152
aF11.003357394661743
aF11.420681551116333
aF11.838005707570924
aF12.255329864025514
aF12.672654020480108
aF13.089978176934698
aF13.507302333389289
aF13.92462648984388
aF14.34195064629847
aF14.759274802753064
aF15.176598959207654
aF15.593923115662244
aF16.011247272116833
aF16.42857142857143
aF16.84589558502602
aF17.26321974148061
aF17.680543897935202
aF18.097868054389792
aF18.515192210844383
aF18.932516367298973
aF19.349840523753564
aF19.767164680208154
aF20.18448883666275
aF20.601812993117342
aF21.019137149571932
aF21.436461306026523
aF21.794167725844744
aF22.422863857646462
aF22.840188014101052
aF23.25751217055565
aF23.67483632701024
aF24.09216048346483
aF24.50948463991942
aF24.92680879637401
aF25.344132952828602
aF25.7614571092832
aF26.17878126573779
aF26.59610542219238
aF27.01342957864697
aF27.43075373510156
aF27.84807789155615
aF28.265402048010742
aF28.682726204465332
aF29.100050360919923
aF29.517374517374513
aF29.858821554473728
ass.