(dp0
Vdonut_nu
p1
(dp2
S'xsec'
p3
(lp4
F0.0011112089395199163
aF0.005045396665093108
aF0.004109705717534092
aF0.0033740573783558317
aF0.00274832363430461
aF0.002238634958412586
aF0.0018234702836570928
aF0.0014852997193156813
aF0.009262620383501145
aF0.007544826794846252
aF0.006145605563801948
aF0.013960923722099408
aF0.0113718091661105
aF0.05129621676699804
aF0.017139961887364955
aF0.021042897973526493
aF0.02569904748556125
aF0.03138546042926286
aF0.039455440394196975
aF0.06701687159387079
aF0.10640117606227371
aF0.08918019176106029
aF0.13271492813052474
aF0.15700407845609843
aF0.18875458797884734
aF0.22848868170972303
aF0.27571912293091877
aF0.3327209834986499
aF0.39698753177681356
aF0.47318155306956244
aF0.5620818394385532
aF0.6864132708150616
aF0.8346598446513094
aF1.0652500758581889
aF1.252082483252434
aF1.4848365370392176
aF1.6907933475926815
aF1.931866845025131
aF2.16295227691151
aF2.4345006606178656
aF2.6454483182098905
aF2.920455428701096
aF3.198715045536615
aF3.4395093732755084
aF3.6935704451546547
aF3.968471052798308
aF4.22140905187737
aF4.532188074944723
aF4.871824379245735
aF5.220149292793602
aF5.562018094727673
aF5.926200187455627
aF6.28590609014155
aF6.659849730578592
aF7.037597339050824
aF7.41723927506163
aF7.78219772186226
aF8.18661453617602
aF8.56043603242597
aF8.96658763323525
aF9.37074249008504
aF9.747232544180875
aF10.180834923660935
aF10.568013203860442
aF10.982427064754335
aF11.398094497338096
aF11.789413440641042
aF12.212505644427651
aF12.684233458184186
aF13.03392575740159
aF13.438424007533936
aF13.873706149858526
aF14.285652668506806
aF14.709830953663133
aF15.12934923254257
aF15.51413424751801
aF15.974789354673517
aF16.36283363996343
aF17.04441448720344
aF17.231825861902305
aF17.63029758625353
aF18.05855589216382
aF18.49721703873428
aF18.896773476267633
aF19.406516627843715
aF19.72171293544405
aF20.17397133882123
aF20.691207180507014
aF21.02726914506031
aF21.425059075753417
aF21.961710724811876
aF22.368773020165435
aF22.783088928741336
aF23.15312676931734
aF23.591133275504983
aF24.100722861289523
aF24.621320038057817
aF25.086780768766467
aF25.465517321121666
aF25.90797504077493
aF26.327756625721523
asS'E'
p5
(lp6
F3.628494204815162
aF3.6786047244284372
aF3.6766796117064686
aF3.6748285417814994
aF3.672903429059531
aF3.670978316337564
aF3.6690532036155954
aF3.6671280908936286
aF3.7561275328861434
aF3.754202420164175
aF3.752277307442208
aF3.8317992714188787
aF3.82987415869691
aF4.3057207711518934
aF3.905545897229647
aF3.9792925230404155
aF4.052989786986519
aF4.12668705093262
aF4.22459630949732
aF4.593462715585762
aF5.017955623989447
aF4.9265220250456
aF5.253448739844016
aF5.506400530207584
aF5.75950349128169
aF6.0844921358686666
aF6.4453619198812415
aF6.878053216982616
aF7.274727629530558
aF7.743213682794371
aF8.247578407390547
aF8.895845307953822
aF9.687714511156349
aF10.6865240766208
aF11.497312536649316
aF12.371028118777156
aF13.16228118013323
aF13.994606838738756
aF14.785701236958404
aF15.634986221924132
aF16.36594905436209
aF17.156911233301386
aF17.94779936944368
aF18.67866347815231
aF19.409515246394776
aF20.13079574907853
aF20.835224111165367
aF21.66183542876633
aF22.560279542168026
aF23.422782929321762
aF24.32114418530776
aF25.18359468474936
aF26.081913630565644
aF26.944311242295107
aF27.842594929636626
aF28.740853936045816
aF29.639070632285303
aF30.53731200945711
aF31.435496973069306
aF32.36960855953954
aF33.26778823438052
aF34.165923836128044
aF35.064098222197806
aF35.962214431784226
aF36.89625197545745
aF37.83027717866453
aF38.72835989269991
aF39.626456710125204
aF40.55535885694946
aF41.49442073327618
aF42.392473477608014
aF43.29053856240603
aF44.224489722816095
aF45.15844088322617
aF46.05647070954941
aF46.95447232909285
aF47.88842348950292
aF48.822325288048326
aF49.8138418618841
aF50.654253387069495
aF51.55223385152807
aF52.48613565007348
aF53.42003744861889
aF54.35391456623197
aF55.25193028916531
aF56.185758044913705
aF57.083736746448544
aF58.01765088546012
aF58.95147864120853
aF59.88533107788927
aF60.78332917158523
aF61.71717808241849
aF62.61511623670736
aF63.54894399245577
aF64.48279642913651
aF65.41667354674958
aF66.35055066436266
aF67.248492344499
aF68.18230952270497
aF69.08023709945141
aF69.90633258556662
assVSK_point
p7
(dp8
g3
(lp9
F0.9318214822079339
aF0.9401398138767832
aF0.9358201773908255
aF1.1213607693668108
aF0.7419306549611725
asg5
(lp10
F15.071847722928448
aF40.03141249281523
aF7.097819839328443
aF15.07358543529695
aF15.06970900001337
assVdonut_nubar
p11
(dp12
g3
(lp13
F0.008426685251450862
aF0.001176180666954046
aF0.002732319263693353
aF0.0020365760654591997
aF0.0016588840989088588
aF0.004554046344021189
aF0.00372904028384119
aF0.00620194753671557
aF0.001405607890285925
aF0.024131592302979378
aF0.010688154991868624
aF0.012802720502045447
aF0.016113537827271356
aF0.0190957326436919
aF0.02888819021809234
aF0.035362669476605435
aF0.04269548980195974
aF0.05148078099137361
aF0.0625460877578685
aF0.07559211660288048
aF0.09136048893517394
aF0.11024543400249386
aF0.13324753400788097
aF0.1592798678181186
aF0.18940172313205744
aF0.22445421997131015
aF0.2701350635920309
aF0.3235961812024909
aF0.3961592882938826
aF0.47392322723481517
aF0.5601110831328335
aF0.6378022561071399
aF0.7320329215810695
aF0.8009239044439915
aF0.9905422742276289
aF1.0957897695951533
aF1.20563450357662
aF1.3205236759440364
aF1.44446046903138
aF1.5676328382930491
aF1.6955439959281091
aF1.8311616870142418
aF1.9731739414590321
aF2.1099144753306223
aF2.262893148602966
aF2.4078914960387072
aF2.5631763670123364
aF2.719265670985414
aF2.8745457831251753
aF3.0427689905392015
aF3.203859086165984
aF3.3760564653403295
aF3.5335329241717846
aF3.7109283007597034
aF3.8818367393929614
aF4.0606164415022805
aF4.241251605710238
aF4.408339603449893
aF4.593271688674729
aF4.784102911612857
aF4.960449001913869
aF5.1414291964070316
aF5.341973231634284
aF5.508862553930577
aF5.702275539047453
aF5.887052436871198
aF6.082307507700071
aF6.258203068103795
aF6.452421773744586
aF6.644011004324592
aF6.832299299688955
aF7.037721609171607
aF7.215356627724353
aF7.400349507694523
aF7.620085184920635
aF7.80801801123875
aF7.997682907684818
aF8.17801285895093
aF8.409774079646898
aF8.56886860710118
aF8.800127580447006
aF8.986726428399024
aF9.16361834219059
aF9.394911877886006
aF9.560064232991643
aF9.766570173832655
aF9.990664949034977
aF10.193060550158606
aF10.370162718178186
aF10.540437595288019
aF10.768120477896623
aF10.986266139693239
aF11.223579317744678
aF11.405870185645048
asg5
(lp14
F4.0066143151329605
aF3.8085806843266834
aF3.888312436228185
aF3.885554342039981
aF3.8836292293180144
aF3.964928220422655
aF3.963052469565353
aF4.060168412447924
aF3.8890658053064993
aF4.5671182884135995
aF4.188398637114549
aF4.333735392273498
aF4.407715252894814
aF4.5529514332545045
aF4.8441216473356015
aF5.007617398458496
aF5.2248497095032445
aF5.424114301809624
aF5.677315986613065
aF5.966379066096236
aF6.29135290212381
aF6.652222686136385
aF7.084928791797159
aF7.517531237542139
aF7.98599507796685
aF8.490337589723927
aF9.123077363171811
aF9.812204252381738
aF10.64133020440268
aF11.508715127387125
aF12.310577463798877
aF13.10183052515495
aF13.934198493930198
aF14.571173867951162
aF16.04550416941761
aF16.872396497062425
aF17.699237699918832
aF18.52603659260553
aF19.352823144826054
aF20.21544641079398
aF21.042127187590225
aF21.904704617540965
aF22.767260892406853
aF23.66565564394387
aF24.528167845716304
aF25.390606004691733
aF26.28895844605905
aF27.18727915479907
aF28.049655611443676
aF28.983865921643236
aF29.846205356889342
aF30.744462600374796
aF31.64265637860568
aF32.57679264600824
aF33.474981135467914
aF34.37316962492759
aF35.27134401099735
aF36.16947256104993
aF37.1035347856555
aF38.00168272786919
aF38.89978835991317
aF39.833801222654074
aF40.731926246859175
aF41.66589151065915
aF42.563981276389484
aF43.49795711773189
aF44.39602925422485
aF45.329973362939974
aF46.22802610727181
aF47.161977267681884
aF48.09591608762579
aF48.993960017338935
aF49.89195987395863
aF50.8258740129702
aF51.75982517338028
aF52.65781974122876
aF53.59172153977416
aF54.48969671546153
aF55.42363553540543
aF56.35748797208618
aF57.29141445156392
aF58.18937728678511
aF59.12323677516081
aF60.0212366317805
aF60.95507672799507
aF61.888953845608135
aF62.822843303687385
aF63.756708080834294
aF64.65463565758073
aF65.55255441970847
aF66.48643153732156
aF67.42029631446846
aF68.35417343208154
aF69.28800118782995
assVneut_nubar
p15
(dp16
g3
(lp17
F0.008869967613475797
aF0.011674772512629878
aF0.015485445811271299
aF0.019055938499658795
aF0.023429644577523827
aF0.028906639650404936
aF0.03577115267140051
aF0.047269330023050275
aF0.06135313393454435
aF0.07595156844307112
aF0.09392698233389386
aF0.11705308383526011
aF0.14502657338841107
aF0.17304011561240784
aF0.20897102493090464
aF0.25516891372062994
aF0.30637341929798045
aF0.3726971250990936
aF0.447867510439746
aF0.5386031831674052
aF0.6441418085204649
aF0.7605580101311407
aF0.8755755543539406
aF1.0113939972393295
aF1.13469744213575
aF1.263935564565328
aF1.395828229950654
aF1.5370680045587686
aF1.6768912083008087
aF1.8268114457276339
aF1.9759125257099206
aF2.1325894229995703
aF2.2934504654980943
aF2.4558541481909866
aF2.620344268575195
aF2.7878422710515176
aF2.9639205587028945
aF3.1353391643743826
aF3.314293850459719
aF3.4909214094753835
aF3.676961922203497
aF3.853521630072418
aF4.026989816234529
aF4.205249588811678
aF4.388251784744327
aF4.569375465476492
aF4.75456367766196
aF4.940165766602398
aF5.13301313350197
aF5.321925311375193
aF5.513834044646099
aF5.7126630106806875
aF5.901706161931033
aF6.105757180206461
aF6.303286120573424
aF6.4978778700245945
aF6.708092408929088
aF6.905268828087449
aF7.113341013809588
aF7.317179326944559
aF7.521462308904961
aF7.731448518141063
aF7.947297178887045
aF8.151613582548773
aF8.367181696193656
aF8.57613969287453
aF8.790316106695403
aF9.00338154051012
aF9.221611393730878
aF9.431592088539507
aF9.660201189226742
aF9.866006447955856
aF10.097900156787249
aF10.313030350628974
aF10.517646021649764
aF10.749425606005676
aF10.962699576767033
aF11.172189220503505
aF11.37751895869545
aF11.594935515317442
aF11.833468979738836
aF12.033678176309188
aF12.263633483972368
aF12.48006833029813
aF12.69121727215366
aF12.905938620382843
aF13.133709194710832
aF13.346341323205756
aF13.581884348612899
aF13.801772343329613
aF14.025220280759688
aF14.242067439489677
aF14.46226732204915
aF14.696408541255405
aF14.912933409063113
aF15.143505704781067
aF15.366617736653925
aF15.593016918790193
aF15.74004625034316
asg5
(lp18
F3.5258929364744276
aF3.6533300936243425
aF3.68912937914469
aF3.7718755102728156
aF3.8276806408358226
aF3.8675490012609544
aF4.027364808991862
aF4.1827640523825504
aF4.3484417020964425
aF4.518027914003422
aF4.702567245056672
aF4.937054612918674
aF5.1465494139001144
aF5.363670698526301
aF5.688637130274175
aF6.049617978482244
aF6.420234487045205
aF6.872588858564109
aF7.320747695958525
aF7.852160959467843
aF8.464321144719216
aF9.18409305123472
aF9.975448746805506
aF10.766836110897264
aF11.557949741012235
aF12.348996059493574
aF13.139961604014546
aF13.930900223882068
aF14.721751338625863
aF15.51258899104293
aF16.303359331826364
aF17.09410947911971
aF17.884825970596232
aF18.675502075092574
aF19.4661445237721
aF20.256760047798174
aF21.04736884066088
aF21.837930515380037
aF22.62848545893584
aF23.419006746674825
aF24.209528034413808
aF25.000002204009242
aF25.79044944895123
aF26.58088996272985
aF27.37132374534511
aF28.161737334470267
aF28.952144192432073
aF29.742537588067144
aF30.532930983702222
aF31.323304185847206
aF32.11367065682883
aF32.90403712781045
aF33.69437667413862
aF34.48472968279351
aF35.27506249795832
aF36.06538185079639
aF36.855714665961194
aF37.64602055647254
aF38.43633317814726
aF39.22663233749524
aF40.01692476567987
aF40.80721719386449
aF41.59750962204911
aF42.38778185674364
aF43.17806082260154
aF43.968326326132704
aF44.75859182966388
aF45.54885060203168
aF46.339109374399484
aF47.12935468444056
aF47.91961345680837
aF48.709845304522716
aF49.50009734572716
aF50.29032919344151
aF51.08054757882913
aF51.870786157706846
aF52.66100454309447
aF53.451216197318736
aF54.241421120379634
aF55.031632774603885
aF55.82185789115487
aF56.61204935188905
aF57.4022610061133
aF58.19245919801083
aF58.98265065874501
aF59.772842119479186
aF60.56304031137672
aF61.353225040947514
aF62.143423232845045
aF62.933607962415856
aF63.72379269198667
aF64.5139706903941
aF65.30414868880155
aF66.09433341837236
aF66.88450468561643
aF67.67468268402388
aF68.46485395126795
aF69.25502521851205
aF69.8296834821135
assVneut_nu
p19
(dp20
g3
(lp21
F0.04316944871407445
aF0.054696380811971035
aF0.07204284980819216
aF0.09049058173646038
aF0.10896146138812118
aF0.13266869318069666
aF0.16428149592034402
aF0.21010255419154605
aF0.258505302424089
aF0.31054825483109155
aF0.36843739849815527
aF0.44170732306421057
aF0.5323356012114072
aF0.6322430816278519
aF0.7631562241682435
aF0.8904021874137525
aF1.0622953543405165
aF1.2552587824842092
aF1.474809479442973
aF1.716969877294646
aF1.968189531887221
aF2.233625582655138
aF2.507734552555175
aF2.7933568630399805
aF3.0914905210974766
aF3.3969923624785254
aF3.716655553940947
aF4.0286613145644194
aF4.3605998263373635
aF4.696251166980121
aF5.039633752272413
aF5.381040289050892
aF5.737339405980973
aF6.090962609433195
aF6.45711253639065
aF6.820769205164108
aF7.194578978263653
aF7.567134894827708
aF7.936182187089855
aF8.31129721624305
aF8.691665979516225
aF9.07641351341336
aF9.46460623396934
aF9.84818896223294
aF10.239970634930149
aF10.639704463180477
aF11.023372419125195
aF11.43726975988183
aF11.832712446582969
aF12.241827532532204
aF12.646933461148397
aF13.04671697890283
aF13.459138094661492
aF13.874641560289803
aF14.292717534945286
aF14.71283501272945
aF15.134442730482004
aF15.534670640875232
aF15.968371757179
aF16.40241270371598
aF16.812038719230944
aF17.25663038645471
aF17.662235637511134
aF18.103323868856577
aF18.52883006898629
aF18.96433750025237
aF19.382258606776194
aF19.852058473838568
aF20.260459217198026
aF20.677261666979852
aF21.132930844752703
aF21.583156281574787
aF22.011376877767628
aF22.43199914037575
aF22.860659204925298
aF23.314226096921132
aF23.742710062431055
aF24.196416910592625
aF24.623447593018234
aF25.058014730300222
aF25.50025132963021
aF25.931687355683835
aF26.370422801738112
aF26.816581165899642
aF27.27028803572632
aF27.711788551973573
aF28.1604368733922
aF28.61634872152021
aF28.665794752139565
aF29.091610440291472
aF29.96430853229066
aF30.405778155681357
aF30.853752031561854
aF31.26344828295836
aF31.595117866360326
asg5
(lp22
F3.547926592005318
aF3.7009723802854264
aF3.847200173194622
aF4.040863222233609
aF4.138368183621045
aF4.274880624009105
aF4.514386354623754
aF4.790921897691989
aF5.112073274324503
aF5.405069877398235
aF5.697949246043384
aF6.090678411557912
aF6.55098112200009
aF6.979839850016814
aF7.424503867392891
aF7.928700056479711
aF8.469016202394515
aF9.116974121190632
aF9.800788968593013
aF10.556339170193146
aF11.347654735209021
aF12.138876063937813
aF12.929996425216148
aF13.721042743697483
aF14.51202848170855
aF15.30294690808598
aF16.093824947483228
aF16.884615481756754
aF17.675392553703546
aF18.466122507506803
aF19.256818805493232
aF20.04746798533612
aF20.838103702852287
aF21.628699033388266
aF22.419280901597517
aF23.209829113989954
aF24.000363864055657
aF24.79087168946792
aF25.581352590226714
aF26.371820028658796
aF27.162274004764136
aF27.952714518542763
aF28.74314156999465
aF29.533548427956454
aF30.323948554754892
aF31.11434195038997
aF31.904708421371588
aF32.69508835467994
aF33.48544136333483
aF34.275794371989726
aF35.06613391831789
aF35.85646000231934
aF36.64678608632077
aF37.43710543915885
aF38.227418060833564
aF39.01772395134491
aF39.80802311069289
aF40.598302076550794
aF41.388594504735416
aF42.17888020175668
aF42.96914570528784
aF43.75942467114574
aF44.54967671235018
aF45.33994221588135
aF46.13019425708579
aF46.92044629829023
aF47.71068487716794
aF48.50094364953575
aF49.291168766086734
aF50.08139388263773
aF50.87163246151544
aF51.66186430922979
aF52.45208269461741
aF53.242294348841675
aF54.032506003065926
aF54.82272438845356
aF55.612929311514456
aF56.40314096573872
aF57.19333915763624
aF57.98353734953377
aF58.773735541431314
aF59.56392700216548
aF60.354118462899656
aF61.144309923633834
aF61.934501384368
aF62.724686113938795
aF63.514870843509605
aF64.30505557308042
aF65.12503130983764
aF65.91520369894226
aF66.67558956830274
aF67.46576083554683
aF68.25593210279091
aF69.04608990770825
aF69.7284910425252
ass.